target datalayout = "e-m:e-p270:32:32-p271:32:32-p272:64:64-i64:64-i128:128-f80:128-n8:16:32:64-S128"
target triple = "x86_64-pc-linux-gnu"

%union.H5O_fheap_id_t = type { i64 }
%struct.H5A_dense_bt2_corder_rec_t = type { %union.H5O_fheap_id_t, i8, i32 }

@H5A_init_g = external global i8, align 1
@H5_libterm_g = external global i8, align 1
@.str.7 = private unnamed_addr constant [1 x i8] zeroinitializer, align 1
@.str.8 = private unnamed_addr constant [8 x i8] c"Record:\00", align 1
@.str.9 = private unnamed_addr constant [28 x i8] c"%*s%-*s {%016lx, %02x, %u}\0A\00", align 1

; Function Attrs: nounwind uwtable
define internal i32 @H5A__dense_btree2_corder_debug(ptr noundef %0, i32 noundef %1, i32 noundef %2, ptr noundef %3, ptr noundef %4) #0 {
  %6 = alloca ptr, align 8
  %7 = alloca i32, align 4
  %8 = alloca i32, align 4
  %9 = alloca ptr, align 8
  %10 = alloca ptr, align 8
  %11 = alloca ptr, align 8
  store ptr %0, ptr %6, align 8, !tbaa !53
  store i32 %1, ptr %7, align 4, !tbaa !34
  store i32 %2, ptr %8, align 4, !tbaa !34
  store ptr %3, ptr %9, align 8, !tbaa !3
  store ptr %4, ptr %10, align 8, !tbaa !3
  call void @llvm.lifetime.start.p0(i64 8, ptr %11) #7
  %12 = load ptr, ptr %9, align 8, !tbaa !3
  store ptr %12, ptr %11, align 8, !tbaa !55
  %13 = load i8, ptr @H5A_init_g, align 1, !tbaa !11, !range !13, !noundef !14
  %14 = trunc i8 %13 to i1
  br i1 %14, label %19, label %15

15:                                               ; preds = %5
  %16 = load i8, ptr @H5_libterm_g, align 1, !tbaa !11, !range !13, !noundef !14
  %17 = trunc i8 %16 to i1
  %18 = xor i1 %17, true
  br label %19

19:                                               ; preds = %15, %5
  %20 = phi i1 [ true, %5 ], [ %18, %15 ]
  %21 = xor i1 %20, true
  %22 = xor i1 %21, true
  %23 = zext i1 %22 to i32
  %24 = sext i32 %23 to i64
  %25 = call i64 @llvm.expect.i64(i64 %24, i64 1)
  %26 = icmp ne i64 %25, 0
  br i1 %26, label %27, label %42

27:                                               ; preds = %19
  %28 = load ptr, ptr %6, align 8, !tbaa !53
  %29 = load i32, ptr %7, align 4, !tbaa !34
  %30 = load i32, ptr %8, align 4, !tbaa !34
  %31 = load ptr, ptr %11, align 8, !tbaa !55
  %32 = getelementptr inbounds nuw %struct.H5A_dense_bt2_corder_rec_t, ptr %31, i32 0, i32 0
  %33 = load i64, ptr %32, align 8, !tbaa !16
  %34 = load ptr, ptr %11, align 8, !tbaa !55
  %35 = getelementptr inbounds nuw %struct.H5A_dense_bt2_corder_rec_t, ptr %34, i32 0, i32 1
  %36 = load i8, ptr %35, align 8, !tbaa !57
  %37 = zext i8 %36 to i32
  %38 = load ptr, ptr %11, align 8, !tbaa !55
  %39 = getelementptr inbounds nuw %struct.H5A_dense_bt2_corder_rec_t, ptr %38, i32 0, i32 2
  %40 = load i32, ptr %39, align 4, !tbaa !59
  %41 = call i32 (ptr, ptr, ...) @fprintf(ptr noundef %28, ptr noundef @.str.9, i32 noundef %29, ptr noundef @.str.7, i32 noundef %30, ptr noundef @.str.8, i64 noundef %33, i32 noundef %37, i32 noundef %40) #7
  br label %42

42:                                               ; preds = %27, %19
  call void @llvm.lifetime.end.p0(i64 8, ptr %11) #7
  ret i32 0
}