; Function Attrs: nofree nounwind uwtable
define internal noundef i32 @H5A__dense_btree2_corder_debug(ptr noundef captures(none) %0, i32 noundef %1, i32 noundef %2, ptr noundef readonly captures(none) %3, ptr readnone captures(none) %4) #2 {
  %6 = load i8, ptr @H5A_init_g, align 1, !tbaa !3, !range !7, !noundef !8
  %7 = trunc nuw i8 %6 to i1
  %8 = load i8, ptr @H5_libterm_g, align 1, !range !7
  %9 = trunc nuw i8 %8 to i1
  %10 = xor i1 %9, true
  %11 = select i1 %7, i1 true, i1 %10
  br i1 %11, label %12, label %20, !prof !9

12:                                               ; preds = %5
  %13 = load i64, ptr %3, align 8, !tbaa !10
  %14 = getelementptr inbounds nuw i8, ptr %3, i64 8
  %15 = load i8, ptr %14, align 8, !tbaa !42
  %16 = zext i8 %15 to i32
  %17 = getelementptr inbounds nuw i8, ptr %3, i64 12
  %18 = load i32, ptr %17, align 4, !tbaa !44
  %19 = tail call i32 (ptr, ptr, ...) @fprintf(ptr noundef %0, ptr noundef nonnull @.str.9, i32 noundef %1, ptr noundef nonnull @.str.7, i32 noundef %2, ptr noundef nonnull @.str.8, i64 noundef %13, i32 noundef %16, i32 noundef %18) #8
  br label %20

20:                                               ; preds = %12, %5
  ret i32 0
}